ccollections
defaultdict
p1
(c__builtin__
list
p2
tRp3
S'OH'
p4
(lp5
F1.6910427502118697
asS'OG'
p6
(lp7
F2.1496043910251958
asS'OE2'
p8
(lp9
F2.0403194424472608
asS'OD2'
p10
(lp11
F2.0337254301573067
asS'OG1'
p12
(lp13
F2.1007147317836958
asS'O'
(lp14
F2.1984910563162119
aF2.7731259751138997
asS'OD1'
p15
(lp16
F2.0531067632973357
asS'ND1'
p17
(lp18
F2.0751859492397249
asS'SG'
p19
(lp20
F2.3276443845297128
asS'NE2'
p21
(lp22
F2.0655635579528959
asS'OE1'
p23
(lp24
F2.0573691649673576
as.